target datalayout = "e-m:e-p270:32:32-p271:32:32-p272:64:64-i64:64-i128:128-f80:128-n8:16:32:64-S128"
target triple = "x86_64-pc-linux-gnu"

%struct.yyguts_t = type { ptr, ptr, ptr, i64, i64, ptr, i8, i64, i64, ptr, i32, i32, i32, i32, i32, ptr, i32, ptr, i32, i32, ptr, i32, i32, ptr }

; Function Attrs: mustprogress nounwind uwtable
define internal noundef i32 @_ZL21yy_get_previous_statePv(ptr noundef %0) #1 {
  %2 = alloca ptr, align 8
  %3 = alloca i32, align 4
  %4 = alloca ptr, align 8
  %5 = alloca ptr, align 8
  store ptr %0, ptr %2, align 8
  %6 = load ptr, ptr %2, align 8
  store ptr %6, ptr %5, align 8
  %7 = load ptr, ptr %5, align 8
  %8 = getelementptr inbounds nuw %struct.yyguts_t, ptr %7, i32 0, i32 11
  %9 = load i32, ptr %8, align 4
  store i32 %9, ptr %3, align 4
  %10 = load ptr, ptr %5, align 8
  %11 = getelementptr inbounds nuw %struct.yyguts_t, ptr %10, i32 0, i32 20
  %12 = load ptr, ptr %11, align 8
  %13 = getelementptr inbounds i8, ptr %12, i64 0
  store ptr %13, ptr %4, align 8
  br label %14

14:                                               ; preds = %54, %1
  %15 = load ptr, ptr %4, align 8
  %16 = load ptr, ptr %5, align 8
  %17 = getelementptr inbounds nuw %struct.yyguts_t, ptr %16, i32 0, i32 9
  %18 = load ptr, ptr %17, align 8
  %19 = icmp ult ptr %15, %18
  br i1 %19, label %20, label %57

20:                                               ; preds = %14
  %21 = load i32, ptr %3, align 4
  %22 = sext i32 %21 to i64
  %23 = getelementptr inbounds [404 x [61 x i16]], ptr @_ZL6yy_nxt, i64 0, i64 %22
  %24 = load ptr, ptr %4, align 8
  %25 = load i8, ptr %24, align 1
  %26 = icmp ne i8 %25, 0
  br i1 %26, label %27, label %34

27:                                               ; preds = %20
  %28 = load ptr, ptr %4, align 8
  %29 = load i8, ptr %28, align 1
  %30 = zext i8 %29 to i32
  %31 = zext i32 %30 to i64
  %32 = getelementptr inbounds [256 x i32], ptr @_ZL5yy_ec, i64 0, i64 %31
  %33 = load i32, ptr %32, align 4
  br label %35

34:                                               ; preds = %20
  br label %35

35:                                               ; preds = %34, %27
  %36 = phi i32 [ %33, %27 ], [ 1, %34 ]
  %37 = sext i32 %36 to i64
  %38 = getelementptr inbounds [61 x i16], ptr %23, i64 0, i64 %37
  %39 = load i16, ptr %38, align 2
  %40 = sext i16 %39 to i32
  store i32 %40, ptr %3, align 4
  %41 = load i32, ptr %3, align 4
  %42 = sext i32 %41 to i64
  %43 = getelementptr inbounds [404 x i16], ptr @_ZL9yy_accept, i64 0, i64 %42
  %44 = load i16, ptr %43, align 2
  %45 = icmp ne i16 %44, 0
  br i1 %45, label %46, label %53

46:                                               ; preds = %35
  %47 = load i32, ptr %3, align 4
  %48 = load ptr, ptr %5, align 8
  %49 = getelementptr inbounds nuw %struct.yyguts_t, ptr %48, i32 0, i32 16
  store i32 %47, ptr %49, align 8
  %50 = load ptr, ptr %4, align 8
  %51 = load ptr, ptr %5, align 8
  %52 = getelementptr inbounds nuw %struct.yyguts_t, ptr %51, i32 0, i32 17
  store ptr %50, ptr %52, align 8
  br label %53

53:                                               ; preds = %46, %35
  br label %54

54:                                               ; preds = %53
  %55 = load ptr, ptr %4, align 8
  %56 = getelementptr inbounds i8, ptr %55, i32 1
  store ptr %56, ptr %4, align 8
  br label %14, !llvm.loop !7

57:                                               ; preds = %14
  %58 = load i32, ptr %3, align 4
  ret i32 %58
}