; Function Attrs: mustprogress nofree norecurse nosync nounwind memory(read, argmem: readwrite, inaccessiblemem: none) uwtable
define internal fastcc noundef i32 @_ZL21yy_get_previous_statePv(ptr noundef captures(none) %0) unnamed_addr #5 {
  %2 = getelementptr inbounds nuw i8, ptr %0, i64 84
  %3 = load i32, ptr %2, align 4
  %4 = getelementptr inbounds nuw i8, ptr %0, i64 136
  %5 = load ptr, ptr %4, align 8
  %6 = getelementptr inbounds nuw i8, ptr %0, i64 72
  %7 = load ptr, ptr %6, align 8
  %8 = icmp ult ptr %5, %7
  br i1 %8, label %.lr.ph, label %._crit_edge

.lr.ph:                                           ; preds = %1
  %9 = getelementptr inbounds nuw i8, ptr %0, i64 112
  %10 = getelementptr inbounds nuw i8, ptr %0, i64 120
  br label %11

11:                                               ; preds = %.lr.ph, %28
  %.018 = phi i32 [ %3, %.lr.ph ], [ %23, %28 ]
  %.01417 = phi ptr [ %5, %.lr.ph ], [ %29, %28 ]
  %12 = sext i32 %.018 to i64
  %13 = load i8, ptr %.01417, align 1
  %.not = icmp eq i8 %13, 0
  br i1 %.not, label %19, label %14

14:                                               ; preds = %11
  %15 = zext i8 %13 to i64
  %16 = getelementptr inbounds nuw [256 x i32], ptr @_ZL5yy_ec, i64 0, i64 %15
  %17 = load i32, ptr %16, align 4
  %18 = sext i32 %17 to i64
  br label %19

19:                                               ; preds = %11, %14
  %20 = phi i64 [ %18, %14 ], [ 1, %11 ]
  %21 = getelementptr inbounds [404 x [61 x i16]], ptr @_ZL6yy_nxt, i64 0, i64 %12, i64 %20
  %22 = load i16, ptr %21, align 2
  %23 = sext i16 %22 to i32
  %24 = sext i16 %22 to i64
  %25 = getelementptr inbounds [404 x i16], ptr @_ZL9yy_accept, i64 0, i64 %24
  %26 = load i16, ptr %25, align 2
  %.not16 = icmp eq i16 %26, 0
  br i1 %.not16, label %28, label %27

27:                                               ; preds = %19
  store i32 %23, ptr %9, align 8
  store ptr %.01417, ptr %10, align 8
  br label %28

28:                                               ; preds = %19, %27
  %29 = getelementptr inbounds nuw i8, ptr %.01417, i64 1
  %exitcond.not = icmp eq ptr %29, %7
  br i1 %exitcond.not, label %._crit_edge, label %11, !llvm.loop !11

._crit_edge:                                      ; preds = %28, %1
  %.0.lcssa = phi i32 [ %3, %1 ], [ %23, %28 ]
  ret i32 %.0.lcssa
}